; Function Attrs: mustprogress nounwind uwtable
define dso_local void @_ZN7testing8internal2RED2Ev(ptr noundef nonnull align 8 dereferenceable(168) %0) unnamed_addr #10 align 2 personality ptr @__gxx_personality_v0 {
  %2 = getelementptr inbounds nuw i8, ptr %0, i64 32
  %3 = load i8, ptr %2, align 8, !tbaa !443, !range !17, !noundef !18
  %4 = trunc nuw i8 %3 to i1
  br i1 %4, label %5, label %9

5:                                                ; preds = %1
  %6 = getelementptr inbounds nuw i8, ptr %0, i64 104
  invoke void @regfree(ptr noundef nonnull %6)
          to label %7 unwind label %18

7:                                                ; preds = %5
  %8 = getelementptr inbounds nuw i8, ptr %0, i64 40
  invoke void @regfree(ptr noundef nonnull %8)
          to label %9 unwind label %18

9:                                                ; preds = %7, %1
  %10 = load ptr, ptr %0, align 8, !tbaa !23
  %11 = getelementptr inbounds nuw i8, ptr %0, i64 16
  %12 = icmp eq ptr %10, %11
  br i1 %12, label %_ZNKSt7__cxx1112basic_stringIcSt11char_traitsIcESaIcEE11_M_is_localEv.exit.thread.i.i, label %_ZNKSt7__cxx1112basic_stringIcSt11char_traitsIcESaIcEE11_M_is_localEv.exit.i.i

_ZNKSt7__cxx1112basic_stringIcSt11char_traitsIcESaIcEE11_M_is_localEv.exit.thread.i.i: ; preds = %9
  %13 = getelementptr inbounds nuw i8, ptr %0, i64 8
  %14 = load i64, ptr %13, align 8, !tbaa !26
  %15 = icmp ult i64 %14, 16
  tail call void @llvm.assume(i1 %15)
  br label %_ZNSt7__cxx1112basic_stringIcSt11char_traitsIcESaIcEED2Ev.exit

_ZNKSt7__cxx1112basic_stringIcSt11char_traitsIcESaIcEE11_M_is_localEv.exit.i.i: ; preds = %9
  %16 = load i64, ptr %11, align 8, !tbaa !28
  %17 = add i64 %16, 1
  tail call void @_ZdlPvm(ptr noundef %10, i64 noundef %17) #58
  br label %_ZNSt7__cxx1112basic_stringIcSt11char_traitsIcESaIcEED2Ev.exit

_ZNSt7__cxx1112basic_stringIcSt11char_traitsIcESaIcEED2Ev.exit: ; preds = %_ZNKSt7__cxx1112basic_stringIcSt11char_traitsIcESaIcEE11_M_is_localEv.exit.thread.i.i, %_ZNKSt7__cxx1112basic_stringIcSt11char_traitsIcESaIcEE11_M_is_localEv.exit.i.i
  ret void

18:                                               ; preds = %7, %5
  %19 = landingpad { ptr, i32 }
          catch ptr null
  %20 = extractvalue { ptr, i32 } %19, 0
  tail call void @__clang_call_terminate(ptr %20) #63
  unreachable
}